; Function Attrs: mustprogress uwtable
define noundef zeroext i1 @_ZNK10open_spiel10backgammon15BackgammonState11IsPosInHomeEii(ptr nocapture noundef nonnull readnone align 8 dereferenceable(216) %0, i32 noundef %1, i32 noundef %2) local_unnamed_addr #4 align 2 personality ptr @__gxx_personality_v0 {
  %4 = alloca %"class.std::__cxx11::basic_string", align 8
  %5 = alloca %"class.absl::debian2::AlphaNum", align 8
  %6 = alloca %"class.absl::debian2::AlphaNum", align 8
  switch i32 %1, label %_ZN4absl7debian28AlphaNumC2EPKc.exit [
    i32 0, label %7
    i32 1, label %21
  ]

7:                                                ; preds = %3
  %8 = add i32 %2, -18
  br label %21

_ZN4absl7debian28AlphaNumC2EPKc.exit:             ; preds = %3
  store ptr @.str.88, ptr %5, align 8
  %9 = getelementptr inbounds nuw i8, ptr %5, i64 8
  store i64 19, ptr %9, align 8
  %10 = getelementptr inbounds nuw i8, ptr %6, i64 16
  %11 = call noundef ptr @_ZN4absl7debian216numbers_internal15FastIntToBufferEiPc(i32 noundef %1, ptr noundef nonnull %10)
  %12 = ptrtoint ptr %11 to i64
  %13 = ptrtoint ptr %10 to i64
  %14 = sub i64 %12, %13
  store ptr %10, ptr %6, align 8
  %15 = icmp sgt i64 %14, -1
  br i1 %15, label %_ZN4absl7debian28AlphaNumC2Ei.exit, label %16

16:                                               ; preds = %_ZN4absl7debian28AlphaNumC2EPKc.exit
  call void @llvm.trap()
  unreachable

_ZN4absl7debian28AlphaNumC2Ei.exit:               ; preds = %_ZN4absl7debian28AlphaNumC2EPKc.exit
  %17 = getelementptr inbounds nuw i8, ptr %6, i64 8
  store i64 %14, ptr %17, align 8
  call void @_ZN4absl7debian26StrCatB5cxx11ERKNS0_8AlphaNumES3_(ptr dead_on_unwind nonnull writable sret(%"class.std::__cxx11::basic_string") align 8 %4, ptr noundef nonnull align 8 dereferenceable(48) %5, ptr noundef nonnull align 8 dereferenceable(48) %6)
  invoke void @_ZN10open_spiel15SpielFatalErrorERKNSt7__cxx1112basic_stringIcSt11char_traitsIcESaIcEEE(ptr noundef nonnull align 8 dereferenceable(32) %4) #29
          to label %18 unwind label %19

18:                                               ; preds = %_ZN4absl7debian28AlphaNumC2Ei.exit
  unreachable

19:                                               ; preds = %_ZN4absl7debian28AlphaNumC2Ei.exit
  %20 = landingpad { ptr, i32 }
          cleanup
  call void @_ZNSt7__cxx1112basic_stringIcSt11char_traitsIcESaIcEED1Ev(ptr noundef nonnull align 8 dereferenceable(32) %4) #30
  resume { ptr, i32 } %20

21:                                               ; preds = %3, %7
  %.0.in = phi i32 [ %8, %7 ], [ %2, %3 ]
  %.0 = icmp ult i32 %.0.in, 6
  ret i1 %.0
}